; Function Attrs: mustprogress uwtable
define hidden void @_ZN4cvc58internal6theory7strings18SequenceProperties12mkGroundTermENS0_8TypeNodeE(ptr dead_on_unwind noalias writable sret(%"class.cvc5::internal::NodeTemplate.0") align 8 %0, ptr noundef %1) local_unnamed_addr #3 align 2 personality ptr @__gxx_personality_v0 {
  %3 = alloca %"class.std::vector.76", align 8
  %4 = alloca %"class.cvc5::internal::Sequence", align 8
  %5 = alloca %"class.cvc5::internal::TypeNode", align 8
  call void @llvm.lifetime.start.p0(i64 24, ptr nonnull %3) #17
  call void @llvm.memset.p0.i64(ptr noundef nonnull align 8 dereferenceable(24) %3, i8 0, i64 24, i1 false)
  %6 = invoke noundef ptr @_ZN4cvc58internal11NodeManager9currentNMEv()
          to label %7 unwind label %48

7:                                                ; preds = %2
  call void @llvm.lifetime.start.p0(i64 32, ptr nonnull %4) #17
  call void @llvm.lifetime.start.p0(i64 8, ptr nonnull %5) #17
  invoke void @_ZNK4cvc58internal8TypeNode22getSequenceElementTypeEv(ptr dead_on_unwind nonnull writable sret(%"class.cvc5::internal::TypeNode") align 8 %5, ptr noundef nonnull align 8 dereferenceable(8) %1)
          to label %8 unwind label %50

8:                                                ; preds = %7
  invoke void @_ZN4cvc58internal8SequenceC1ERKNS0_8TypeNodeERKSt6vectorINS0_12NodeTemplateILb1EEESaIS7_EE(ptr noundef nonnull align 8 dereferenceable(32) %4, ptr noundef nonnull align 8 dereferenceable(8) %5, ptr noundef nonnull align 8 dereferenceable(24) %3)
          to label %9 unwind label %52

9:                                                ; preds = %8
  invoke void @_ZN4cvc58internal11NodeManager7mkConstINS0_8SequenceEEENS0_12NodeTemplateILb1EEERKT_(ptr dead_on_unwind writable sret(%"class.cvc5::internal::NodeTemplate.0") align 8 %0, ptr noundef nonnull align 8 dereferenceable(3560) %6, ptr noundef nonnull align 8 dereferenceable(32) %4)
          to label %10 unwind label %54

10:                                               ; preds = %9
  call void @_ZN4cvc58internal8SequenceD1Ev(ptr noundef nonnull align 8 dereferenceable(32) %4) #17
  %11 = load ptr, ptr %5, align 8, !tbaa !3
  %12 = load i64, ptr %11, align 8
  %13 = and i64 %12, 1152920405095219200
  %.not.i.i = icmp eq i64 %13, 1152920405095219200
  br i1 %.not.i.i, label %_ZN4cvc58internal8TypeNodeD2Ev.exit, label %14, !prof !15

14:                                               ; preds = %10
  %15 = add i64 %12, 1152920405095219200
  %16 = and i64 %15, 1152920405095219200
  %17 = and i64 %12, -1152920405095219201
  %18 = or disjoint i64 %16, %17
  store i64 %18, ptr %11, align 8
  %19 = icmp eq i64 %16, 0
  br i1 %19, label %20, label %_ZN4cvc58internal8TypeNodeD2Ev.exit, !prof !15

20:                                               ; preds = %14
  invoke void @_ZN4cvc58internal4expr9NodeValue15markForDeletionEv(ptr noundef nonnull align 8 dereferenceable(24) %11)
          to label %_ZN4cvc58internal8TypeNodeD2Ev.exit unwind label %21

21:                                               ; preds = %20
  %22 = landingpad { ptr, i32 }
          catch ptr null
  %23 = extractvalue { ptr, i32 } %22, 0
  call void @__clang_call_terminate(ptr %23) #19
  unreachable

_ZN4cvc58internal8TypeNodeD2Ev.exit:              ; preds = %10, %14, %20
  call void @llvm.lifetime.end.p0(i64 8, ptr nonnull %5) #17
  call void @llvm.lifetime.end.p0(i64 32, ptr nonnull %4) #17
  %24 = load ptr, ptr %3, align 8, !tbaa !278
  %25 = getelementptr inbounds nuw i8, ptr %3, i64 8
  %26 = load ptr, ptr %25, align 8, !tbaa !281
  %.not4.i.i.i.i = icmp eq ptr %24, %26
  br i1 %.not4.i.i.i.i, label %_ZSt8_DestroyIPN4cvc58internal12NodeTemplateILb1EEES3_EvT_S5_RSaIT0_E.exit.i, label %.lr.ph.i.i.i.i

.lr.ph.i.i.i.i:                                   ; preds = %_ZN4cvc58internal8TypeNodeD2Ev.exit, %_ZSt8_DestroyIN4cvc58internal12NodeTemplateILb1EEEEvPT_.exit.i.i.i.i
  %.05.i.i.i.i = phi ptr [ %40, %_ZSt8_DestroyIN4cvc58internal12NodeTemplateILb1EEEEvPT_.exit.i.i.i.i ], [ %24, %_ZN4cvc58internal8TypeNodeD2Ev.exit ]
  %27 = load ptr, ptr %.05.i.i.i.i, align 8, !tbaa !23
  %28 = load i64, ptr %27, align 8
  %29 = and i64 %28, 1152920405095219200
  %.not.i.i.i.i.i.i.i = icmp eq i64 %29, 1152920405095219200
  br i1 %.not.i.i.i.i.i.i.i, label %_ZSt8_DestroyIN4cvc58internal12NodeTemplateILb1EEEEvPT_.exit.i.i.i.i, label %30, !prof !15

30:                                               ; preds = %.lr.ph.i.i.i.i
  %31 = add i64 %28, 1152920405095219200
  %32 = and i64 %31, 1152920405095219200
  %33 = and i64 %28, -1152920405095219201
  %34 = or disjoint i64 %32, %33
  store i64 %34, ptr %27, align 8
  %35 = icmp eq i64 %32, 0
  br i1 %35, label %36, label %_ZSt8_DestroyIN4cvc58internal12NodeTemplateILb1EEEEvPT_.exit.i.i.i.i, !prof !15

36:                                               ; preds = %30
  invoke void @_ZN4cvc58internal4expr9NodeValue15markForDeletionEv(ptr noundef nonnull align 8 dereferenceable(24) %27)
          to label %_ZSt8_DestroyIN4cvc58internal12NodeTemplateILb1EEEEvPT_.exit.i.i.i.i unwind label %37

37:                                               ; preds = %36
  %38 = landingpad { ptr, i32 }
          catch ptr null
  %39 = extractvalue { ptr, i32 } %38, 0
  call void @__clang_call_terminate(ptr %39) #19
  unreachable

_ZSt8_DestroyIN4cvc58internal12NodeTemplateILb1EEEEvPT_.exit.i.i.i.i: ; preds = %36, %30, %.lr.ph.i.i.i.i
  %40 = getelementptr inbounds nuw i8, ptr %.05.i.i.i.i, i64 8
  %.not.i.i.i.i = icmp eq ptr %40, %26
  br i1 %.not.i.i.i.i, label %_ZSt8_DestroyIPN4cvc58internal12NodeTemplateILb1EEES3_EvT_S5_RSaIT0_E.exitthread-pre-split.i, label %.lr.ph.i.i.i.i, !llvm.loop !282

_ZSt8_DestroyIPN4cvc58internal12NodeTemplateILb1EEES3_EvT_S5_RSaIT0_E.exitthread-pre-split.i: ; preds = %_ZSt8_DestroyIN4cvc58internal12NodeTemplateILb1EEEEvPT_.exit.i.i.i.i
  %.pr.i = load ptr, ptr %3, align 8, !tbaa !278
  br label %_ZSt8_DestroyIPN4cvc58internal12NodeTemplateILb1EEES3_EvT_S5_RSaIT0_E.exit.i

_ZSt8_DestroyIPN4cvc58internal12NodeTemplateILb1EEES3_EvT_S5_RSaIT0_E.exit.i: ; preds = %_ZSt8_DestroyIPN4cvc58internal12NodeTemplateILb1EEES3_EvT_S5_RSaIT0_E.exitthread-pre-split.i, %_ZN4cvc58internal8TypeNodeD2Ev.exit
  %41 = phi ptr [ %.pr.i, %_ZSt8_DestroyIPN4cvc58internal12NodeTemplateILb1EEES3_EvT_S5_RSaIT0_E.exitthread-pre-split.i ], [ %24, %_ZN4cvc58internal8TypeNodeD2Ev.exit ]
  %.not.i.i.i = icmp eq ptr %41, null
  br i1 %.not.i.i.i, label %_ZNSt6vectorIN4cvc58internal12NodeTemplateILb1EEESaIS3_EED2Ev.exit, label %42

42:                                               ; preds = %_ZSt8_DestroyIPN4cvc58internal12NodeTemplateILb1EEES3_EvT_S5_RSaIT0_E.exit.i
  %43 = getelementptr inbounds nuw i8, ptr %3, i64 16
  %44 = load ptr, ptr %43, align 8, !tbaa !283
  %45 = ptrtoint ptr %44 to i64
  %46 = ptrtoint ptr %41 to i64
  %47 = sub i64 %45, %46
  call void @_ZdlPvm(ptr noundef nonnull %41, i64 noundef %47) #21
  br label %_ZNSt6vectorIN4cvc58internal12NodeTemplateILb1EEESaIS3_EED2Ev.exit

_ZNSt6vectorIN4cvc58internal12NodeTemplateILb1EEESaIS3_EED2Ev.exit: ; preds = %_ZSt8_DestroyIPN4cvc58internal12NodeTemplateILb1EEES3_EvT_S5_RSaIT0_E.exit.i, %42
  call void @llvm.lifetime.end.p0(i64 24, ptr nonnull %3) #17
  ret void

48:                                               ; preds = %2
  %49 = landingpad { ptr, i32 }
          cleanup
  br label %58

50:                                               ; preds = %7
  %51 = landingpad { ptr, i32 }
          cleanup
  br label %57

52:                                               ; preds = %8
  %53 = landingpad { ptr, i32 }
          cleanup
  br label %56

54:                                               ; preds = %9
  %55 = landingpad { ptr, i32 }
          cleanup
  call void @_ZN4cvc58internal8SequenceD1Ev(ptr noundef nonnull align 8 dereferenceable(32) %4) #17
  br label %56

56:                                               ; preds = %54, %52
  %.pn = phi { ptr, i32 } [ %55, %54 ], [ %53, %52 ]
  call void @_ZN4cvc58internal8TypeNodeD2Ev(ptr noundef nonnull align 8 dereferenceable(8) %5) #17
  br label %57

57:                                               ; preds = %56, %50
  %.pn.pn = phi { ptr, i32 } [ %.pn, %56 ], [ %51, %50 ]
  call void @llvm.lifetime.end.p0(i64 8, ptr nonnull %5) #17
  call void @llvm.lifetime.end.p0(i64 32, ptr nonnull %4) #17
  br label %58

58:                                               ; preds = %57, %48
  %.pn.pn.pn = phi { ptr, i32 } [ %.pn.pn, %57 ], [ %49, %48 ]
  call void @_ZNSt6vectorIN4cvc58internal12NodeTemplateILb1EEESaIS3_EED2Ev(ptr noundef nonnull align 8 dereferenceable(24) %3) #17
  call void @llvm.lifetime.end.p0(i64 24, ptr nonnull %3) #17
  resume { ptr, i32 } %.pn.pn.pn
}